target datalayout = "e-m:e-p270:32:32-p271:32:32-p272:64:64-i64:64-i128:128-f80:128-n8:16:32:64-S128"
target triple = "x86_64-pc-linux-gnu"

%struct.lexbor_shs_hash_t = type { i32, i32, i32 }

@lxb_encoding_multi_hash_jis0208 = external constant [11349 x %struct.lexbor_shs_hash_t], align 16

; Function Attrs: nounwind uwtable
define internal ptr @lexbor_shs_hash_get_static(ptr noundef %0, i64 noundef %1, i32 noundef %2) #0 {
  %4 = alloca ptr, align 8
  %5 = alloca ptr, align 8
  %6 = alloca i64, align 8
  %7 = alloca i32, align 4
  %8 = alloca ptr, align 8
  store ptr %0, ptr %5, align 8
  store i64 %1, ptr %6, align 8
  store i32 %2, ptr %7, align 4
  %9 = load ptr, ptr %5, align 8
  %10 = load i32, ptr %7, align 4
  %11 = zext i32 %10 to i64
  %12 = load i64, ptr %6, align 8
  %13 = urem i64 %11, %12
  %14 = add i64 %13, 1
  %15 = getelementptr inbounds %struct.lexbor_shs_hash_t, ptr %9, i64 %14
  store ptr %15, ptr %8, align 8
  br label %16

16:                                               ; preds = %31, %3
  %17 = load ptr, ptr %8, align 8
  %18 = getelementptr inbounds %struct.lexbor_shs_hash_t, ptr %17, i32 0, i32 0
  %19 = load i32, ptr %18, align 4
  %20 = load i32, ptr %7, align 4
  %21 = icmp eq i32 %19, %20
  br i1 %21, label %22, label %24

22:                                               ; preds = %16
  %23 = load ptr, ptr %8, align 8
  store ptr %23, ptr %4, align 8
  br label %36

24:                                               ; preds = %16
  %25 = load ptr, ptr %5, align 8
  %26 = load ptr, ptr %8, align 8
  %27 = getelementptr inbounds %struct.lexbor_shs_hash_t, ptr %26, i32 0, i32 2
  %28 = load i32, ptr %27, align 4
  %29 = zext i32 %28 to i64
  %30 = getelementptr inbounds %struct.lexbor_shs_hash_t, ptr %25, i64 %29
  store ptr %30, ptr %8, align 8
  br label %31

31:                                               ; preds = %24
  %32 = load ptr, ptr %8, align 8
  %33 = load ptr, ptr %5, align 8
  %34 = icmp ne ptr %32, %33
  br i1 %34, label %16, label %35

35:                                               ; preds = %31
  store ptr null, ptr %4, align 8
  br label %36

36:                                               ; preds = %35, %22
  %37 = load ptr, ptr %4, align 8
  ret ptr %37
}

; Function Attrs: nounwind uwtable
define hidden signext i8 @lxb_encoding_encode_euc_jp_single(ptr noundef %0, ptr noundef %1, ptr noundef %2, i32 noundef %3) #0 {
  %5 = alloca i8, align 1
  %6 = alloca ptr, align 8
  %7 = alloca ptr, align 8
  %8 = alloca ptr, align 8
  %9 = alloca i32, align 4
  %10 = alloca ptr, align 8
  store ptr %0, ptr %6, align 8
  store ptr %1, ptr %7, align 8
  store ptr %2, ptr %8, align 8
  store i32 %3, ptr %9, align 4
  %11 = load i32, ptr %9, align 4
  %12 = icmp ult i32 %11, 128
  br i1 %12, label %13, label %19

13:                                               ; preds = %4
  %14 = load i32, ptr %9, align 4
  %15 = trunc i32 %14 to i8
  %16 = load ptr, ptr %7, align 8
  %17 = load ptr, ptr %16, align 8
  %18 = getelementptr inbounds i8, ptr %17, i32 1
  store ptr %18, ptr %16, align 8
  store i8 %15, ptr %17, align 1
  store i8 1, ptr %5, align 1
  br label %88

19:                                               ; preds = %4
  %20 = load i32, ptr %9, align 4
  %21 = icmp eq i32 %20, 165
  br i1 %21, label %22, label %26

22:                                               ; preds = %19
  %23 = load ptr, ptr %7, align 8
  %24 = load ptr, ptr %23, align 8
  %25 = getelementptr inbounds i8, ptr %24, i32 1
  store ptr %25, ptr %23, align 8
  store i8 92, ptr %24, align 1
  store i8 1, ptr %5, align 1
  br label %88

26:                                               ; preds = %19
  %27 = load i32, ptr %9, align 4
  %28 = icmp eq i32 %27, 8254
  br i1 %28, label %29, label %33

29:                                               ; preds = %26
  %30 = load ptr, ptr %7, align 8
  %31 = load ptr, ptr %30, align 8
  %32 = getelementptr inbounds i8, ptr %31, i32 1
  store ptr %32, ptr %30, align 8
  store i8 126, ptr %31, align 1
  store i8 1, ptr %5, align 1
  br label %88

33:                                               ; preds = %26
  %34 = load ptr, ptr %7, align 8
  %35 = load ptr, ptr %34, align 8
  %36 = getelementptr inbounds i8, ptr %35, i64 2
  %37 = load ptr, ptr %8, align 8
  %38 = icmp ugt ptr %36, %37
  br i1 %38, label %39, label %40

39:                                               ; preds = %33
  store i8 -2, ptr %5, align 1
  br label %88

40:                                               ; preds = %33
  %41 = load i32, ptr %9, align 4
  %42 = sub i32 %41, 65377
  %43 = icmp ule i32 %42, 62
  br i1 %43, label %44, label %55

44:                                               ; preds = %40
  %45 = load ptr, ptr %7, align 8
  %46 = load ptr, ptr %45, align 8
  %47 = getelementptr inbounds i8, ptr %46, i32 1
  store ptr %47, ptr %45, align 8
  store i8 -114, ptr %46, align 1
  %48 = load i32, ptr %9, align 4
  %49 = sub i32 %48, 65377
  %50 = add i32 %49, 161
  %51 = trunc i32 %50 to i8
  %52 = load ptr, ptr %7, align 8
  %53 = load ptr, ptr %52, align 8
  %54 = getelementptr inbounds i8, ptr %53, i32 1
  store ptr %54, ptr %52, align 8
  store i8 %51, ptr %53, align 1
  store i8 2, ptr %5, align 1
  br label %88

55:                                               ; preds = %40
  %56 = load i32, ptr %9, align 4
  %57 = icmp eq i32 %56, 8722
  br i1 %57, label %58, label %59

58:                                               ; preds = %55
  store i32 65293, ptr %9, align 4
  br label %59

59:                                               ; preds = %58, %55
  %60 = load i32, ptr %9, align 4
  %61 = call ptr @lexbor_shs_hash_get_static(ptr noundef @lxb_encoding_multi_hash_jis0208, i64 noundef 9253, i32 noundef %60)
  store ptr %61, ptr %10, align 8
  %62 = load ptr, ptr %10, align 8
  %63 = icmp eq ptr %62, null
  br i1 %63, label %64, label %65

64:                                               ; preds = %59
  store i8 -1, ptr %5, align 1
  br label %88

65:                                               ; preds = %59
  %66 = load ptr, ptr %10, align 8
  %67 = getelementptr inbounds %struct.lexbor_shs_hash_t, ptr %66, i32 0, i32 1
  %68 = load i32, ptr %67, align 4
  %69 = zext i32 %68 to i64
  %70 = trunc i64 %69 to i32
  %71 = udiv i32 %70, 94
  %72 = add i32 %71, 161
  %73 = trunc i32 %72 to i8
  %74 = load ptr, ptr %7, align 8
  %75 = load ptr, ptr %74, align 8
  %76 = getelementptr inbounds i8, ptr %75, i32 1
  store ptr %76, ptr %74, align 8
  store i8 %73, ptr %75, align 1
  %77 = load ptr, ptr %10, align 8
  %78 = getelementptr inbounds %struct.lexbor_shs_hash_t, ptr %77, i32 0, i32 1
  %79 = load i32, ptr %78, align 4
  %80 = zext i32 %79 to i64
  %81 = trunc i64 %80 to i32
  %82 = urem i32 %81, 94
  %83 = add i32 %82, 161
  %84 = trunc i32 %83 to i8
  %85 = load ptr, ptr %7, align 8
  %86 = load ptr, ptr %85, align 8
  %87 = getelementptr inbounds i8, ptr %86, i32 1
  store ptr %87, ptr %85, align 8
  store i8 %84, ptr %86, align 1
  store i8 2, ptr %5, align 1
  br label %88

88:                                               ; preds = %65, %64, %44, %39, %29, %22, %13
  %89 = load i8, ptr %5, align 1
  ret i8 %89
}