; Function Attrs: nofree norecurse nosync nounwind memory(write, argmem: readwrite, inaccessiblemem: none) uwtable
define hidden noundef signext i8 @lxb_encoding_encode_euc_jp_single(ptr nocapture noundef readnone %0, ptr nocapture noundef %1, ptr noundef readnone %2, i32 noundef %3) local_unnamed_addr #6 {
  %5 = icmp ult i32 %3, 128
  br i1 %5, label %6, label %10

6:                                                ; preds = %4
  %7 = trunc i32 %3 to i8
  %8 = load ptr, ptr %1, align 8
  %9 = getelementptr inbounds i8, ptr %8, i64 1
  store ptr %9, ptr %1, align 8
  store i8 %7, ptr %8, align 1
  br label %lexbor_shs_hash_get_static.exit.thread

10:                                               ; preds = %4
  %11 = load ptr, ptr %1, align 8
  switch i32 %3, label %16 [
    i32 165, label %12
    i32 8254, label %14
  ]

12:                                               ; preds = %10
  %13 = getelementptr inbounds i8, ptr %11, i64 1
  store ptr %13, ptr %1, align 8
  store i8 92, ptr %11, align 1
  br label %lexbor_shs_hash_get_static.exit.thread

14:                                               ; preds = %10
  %15 = getelementptr inbounds i8, ptr %11, i64 1
  store ptr %15, ptr %1, align 8
  store i8 126, ptr %11, align 1
  br label %lexbor_shs_hash_get_static.exit.thread

16:                                               ; preds = %10
  %17 = getelementptr inbounds i8, ptr %11, i64 2
  %18 = icmp ugt ptr %17, %2
  br i1 %18, label %lexbor_shs_hash_get_static.exit.thread, label %19

19:                                               ; preds = %16
  %20 = add i32 %3, -65377
  %21 = icmp ult i32 %20, 63
  br i1 %21, label %22, label %28

22:                                               ; preds = %19
  %23 = getelementptr inbounds i8, ptr %11, i64 1
  store ptr %23, ptr %1, align 8
  store i8 -114, ptr %11, align 1
  %24 = trunc i32 %3 to i8
  %25 = add nuw i8 %24, 64
  %26 = load ptr, ptr %1, align 8
  %27 = getelementptr inbounds i8, ptr %26, i64 1
  store ptr %27, ptr %1, align 8
  store i8 %25, ptr %26, align 1
  br label %lexbor_shs_hash_get_static.exit.thread

28:                                               ; preds = %19
  %29 = icmp eq i32 %3, 8722
  %spec.store.select = select i1 %29, i32 65293, i32 %3
  %30 = urem i32 %spec.store.select, 9253
  %.zext = zext nneg i32 %30 to i64
  %31 = getelementptr %struct.lexbor_shs_hash_t, ptr @lxb_encoding_multi_hash_jis0208, i64 %.zext
  %32 = getelementptr i8, ptr %31, i64 12
  br label %33

33:                                               ; preds = %36, %28
  %.0.i = phi ptr [ %32, %28 ], [ %40, %36 ]
  %34 = load i32, ptr %.0.i, align 4
  %35 = icmp eq i32 %34, %spec.store.select
  br i1 %35, label %lexbor_shs_hash_get_static.exit, label %36

36:                                               ; preds = %33
  %37 = getelementptr inbounds i8, ptr %.0.i, i64 8
  %38 = load i32, ptr %37, align 4
  %39 = zext i32 %38 to i64
  %40 = getelementptr inbounds %struct.lexbor_shs_hash_t, ptr @lxb_encoding_multi_hash_jis0208, i64 %39
  %.not.i = icmp eq i32 %38, 0
  br i1 %.not.i, label %lexbor_shs_hash_get_static.exit.thread, label %33

lexbor_shs_hash_get_static.exit:                  ; preds = %33
  %41 = getelementptr inbounds i8, ptr %.0.i, i64 4
  %42 = load i32, ptr %41, align 4
  %43 = udiv i32 %42, 94
  %44 = trunc i32 %43 to i8
  %45 = add i8 %44, -95
  %46 = getelementptr inbounds i8, ptr %11, i64 1
  store ptr %46, ptr %1, align 8
  store i8 %45, ptr %11, align 1
  %47 = urem i32 %42, 94
  %48 = trunc i32 %47 to i8
  %49 = add nuw nsw i8 %48, -95
  %50 = load ptr, ptr %1, align 8
  %51 = getelementptr inbounds i8, ptr %50, i64 1
  store ptr %51, ptr %1, align 8
  store i8 %49, ptr %50, align 1
  br label %lexbor_shs_hash_get_static.exit.thread

lexbor_shs_hash_get_static.exit.thread:           ; preds = %36, %16, %lexbor_shs_hash_get_static.exit, %22, %14, %12, %6
  %.0 = phi i8 [ 1, %6 ], [ 1, %12 ], [ 1, %14 ], [ 2, %22 ], [ 2, %lexbor_shs_hash_get_static.exit ], [ -2, %16 ], [ -1, %36 ]
  ret i8 %.0
}